target datalayout = "e-m:e-p270:32:32-p271:32:32-p272:64:64-i64:64-i128:128-f80:128-n8:16:32:64-S128"
target triple = "x86_64-unknown-linux-gnu"

module asm ".section \22.export_symbol\22,\22a\22 ; __export_symbol___lwq_dequeue: ; .asciz \22GPL\22 ; .asciz \22\22 ; .balign 8 ; .quad __lwq_dequeue ; .previous"
module asm ".section \22.export_symbol\22,\22a\22 ; __export_symbol_lwq_dequeue_all: ; .asciz \22GPL\22 ; .asciz \22\22 ; .balign 8 ; .quad lwq_dequeue_all ; .previous"

@__UNIQUE_ID___addressable___lwq_dequeue77 = internal global ptr @__lwq_dequeue, section ".discard.addressable", align 8
@__UNIQUE_ID___addressable_lwq_dequeue_all78 = internal global ptr @lwq_dequeue_all, section ".discard.addressable", align 8
@llvm.compiler.used = appending global [2 x ptr] [ptr @__UNIQUE_ID___addressable___lwq_dequeue77, ptr @__UNIQUE_ID___addressable_lwq_dequeue_all78], section "llvm.metadata"

; Function Attrs: fn_ret_thunk_extern nounwind null_pointer_is_valid
define dso_local ptr @__lwq_dequeue(ptr noundef %0) #0 align 16 {
  %2 = getelementptr inbounds i8, ptr %0, i64 8
  %3 = load volatile ptr, ptr %2, align 8
  tail call void asm sideeffect "", "~{memory},~{dirflag},~{fpsr},~{flags}"() #3, !srcloc !5
  %4 = icmp eq ptr %3, null
  br i1 %4, label %5, label %9

5:                                                ; preds = %1
  %6 = getelementptr inbounds i8, ptr %0, i64 16
  %7 = load volatile ptr, ptr %6, align 8
  %8 = icmp eq ptr %7, null
  br i1 %8, label %27, label %9

9:                                                ; preds = %5, %1
  tail call void @_raw_spin_lock(ptr noundef %0) #3
  %10 = load ptr, ptr %2, align 8
  %11 = icmp eq ptr %10, null
  br i1 %11, label %12, label %21

12:                                               ; preds = %9
  %13 = getelementptr inbounds i8, ptr %0, i64 16
  %14 = load volatile ptr, ptr %13, align 8
  %15 = icmp eq ptr %14, null
  br i1 %15, label %21, label %16

16:                                               ; preds = %12
  tail call void asm sideeffect "", "~{memory},~{dirflag},~{fpsr},~{flags}"() #3, !srcloc !6
  store volatile ptr inttoptr (i64 1 to ptr), ptr %2, align 8
  %17 = tail call ptr asm sideeffect "xchgq ${0:q}, $1\0A", "=r,=*m,0,*m,~{memory},~{cc},~{dirflag},~{fpsr},~{flags}"(ptr elementtype(ptr) %13, ptr null, ptr elementtype(ptr) %13) #3, !srcloc !7
  %18 = tail call ptr @llist_reverse_order(ptr noundef %17) #3
  %19 = icmp eq ptr %18, null
  br i1 %19, label %20, label %21

20:                                               ; preds = %16
  store ptr null, ptr %2, align 8
  br label %21

21:                                               ; preds = %20, %16, %12, %9
  %22 = phi ptr [ %10, %9 ], [ null, %12 ], [ %18, %16 ], [ null, %20 ]
  %23 = icmp eq ptr %22, null
  br i1 %23, label %26, label %24

24:                                               ; preds = %21
  %25 = load ptr, ptr %22, align 8
  store ptr %25, ptr %2, align 8
  br label %26

26:                                               ; preds = %24, %21
  tail call void @_raw_spin_unlock(ptr noundef %0) #3
  br label %27

27:                                               ; preds = %26, %5
  %28 = phi ptr [ %22, %26 ], [ null, %5 ]
  ret ptr %28
}

; Function Attrs: nocallback nofree nosync nounwind willreturn memory(argmem: readwrite)
declare void @llvm.lifetime.start.p0(i64 immarg, ptr nocapture) #1

; Function Attrs: null_pointer_is_valid
declare dso_local ptr @llist_reverse_order(ptr noundef) local_unnamed_addr #2

; Function Attrs: nocallback nofree nosync nounwind willreturn memory(argmem: readwrite)
declare void @llvm.lifetime.end.p0(i64 immarg, ptr nocapture) #1

; Function Attrs: fn_ret_thunk_extern nounwind null_pointer_is_valid
define dso_local ptr @lwq_dequeue_all(ptr noundef %0) #0 align 16 {
  %2 = alloca ptr, align 8
  call void @llvm.lifetime.start.p0(i64 8, ptr nonnull %2)
  store ptr null, ptr %2, align 8
  %3 = getelementptr inbounds i8, ptr %0, i64 8
  %4 = load volatile ptr, ptr %3, align 8
  tail call void asm sideeffect "", "~{memory},~{dirflag},~{fpsr},~{flags}"() #3, !srcloc !5
  %5 = icmp eq ptr %4, null
  br i1 %5, label %6, label %10

6:                                                ; preds = %1
  %7 = getelementptr inbounds i8, ptr %0, i64 16
  %8 = load volatile ptr, ptr %7, align 8
  %9 = icmp eq ptr %8, null
  br i1 %9, label %21, label %10

10:                                               ; preds = %6, %1
  tail call void @_raw_spin_lock(ptr noundef %0) #3
  %11 = load ptr, ptr %3, align 8
  store ptr %11, ptr %2, align 8
  store ptr null, ptr %3, align 8
  %12 = getelementptr inbounds i8, ptr %0, i64 16
  %13 = tail call ptr asm sideeffect "xchgq ${0:q}, $1\0A", "=r,=*m,0,*m,~{memory},~{cc},~{dirflag},~{fpsr},~{flags}"(ptr elementtype(ptr) %12, ptr null, ptr elementtype(ptr) %12) #3, !srcloc !7
  tail call void @_raw_spin_unlock(ptr noundef %0) #3
  br label %14

14:                                               ; preds = %14, %10
  %15 = phi ptr [ %2, %10 ], [ %16, %14 ]
  %16 = load ptr, ptr %15, align 8
  %17 = icmp eq ptr %16, null
  br i1 %17, label %18, label %14, !llvm.loop !8

18:                                               ; preds = %14
  %19 = tail call ptr @llist_reverse_order(ptr noundef %13) #3
  store ptr %19, ptr %15, align 8
  %20 = load ptr, ptr %2, align 8
  br label %21

21:                                               ; preds = %18, %6
  %22 = phi ptr [ %20, %18 ], [ null, %6 ]
  call void @llvm.lifetime.end.p0(i64 8, ptr nonnull %2)
  ret ptr %22
}

; Function Attrs: null_pointer_is_valid
declare dso_local void @_raw_spin_lock(ptr noundef) local_unnamed_addr #2 section ".spinlock.text"

; Function Attrs: null_pointer_is_valid
declare dso_local void @_raw_spin_unlock(ptr noundef) local_unnamed_addr #2 section ".spinlock.text"


!llvm.module.flags = !{!0, !1, !2, !3, !4}

!0 = !{i32 1, !"wchar_size", i32 2}
!1 = !{i32 8, !"cf-protection-branch", i32 1}
!2 = !{i32 4, !"function_return_thunk_extern", i32 1}
!3 = !{i32 4, !"indirect_branch_cs_prefix", i32 1}
!4 = !{i32 4, !"SkipRaxSetup", i32 1}
!5 = !{i64 2149845411}
!6 = !{i64 2149857111}
!7 = !{i64 2149283979}
!8 = distinct !{!8, !9, !10}
!9 = !{!"llvm.loop.mustprogress"}
!10 = !{!"llvm.loop.unroll.disable"}
